target datalayout = "e-m:e-p270:32:32-p271:32:32-p272:64:64-i64:64-i128:128-f80:128-n8:16:32:64-S128"
target triple = "x86_64-pc-linux-gnu"

%struct.UDataMemory = type { ptr, ptr, ptr, i8, ptr, ptr, i32 }
%struct.UDataOffsetTOC = type { i32, [1 x %struct.UDataOffsetTOCEntry] }
%struct.UDataOffsetTOCEntry = type { i32, i32 }

; Function Attrs: mustprogress nounwind uwtable
define internal noundef i32 @_ZL17strcmpAfterPrefixPKcS0_Pi(ptr noundef %0, ptr noundef %1, ptr noundef %2) #0 {
  %4 = alloca ptr, align 8
  %5 = alloca ptr, align 8
  %6 = alloca ptr, align 8
  %7 = alloca i32, align 4
  %8 = alloca i32, align 4
  %9 = alloca i32, align 4
  %10 = alloca i32, align 4
  %11 = alloca i32, align 4
  store ptr %0, ptr %4, align 8, !tbaa !29
  store ptr %1, ptr %5, align 8, !tbaa !29
  store ptr %2, ptr %6, align 8, !tbaa !31
  call void @llvm.lifetime.start.p0(i64 4, ptr %7) #5
  %12 = load ptr, ptr %6, align 8, !tbaa !31
  %13 = load i32, ptr %12, align 4, !tbaa !35
  store i32 %13, ptr %7, align 4, !tbaa !35
  call void @llvm.lifetime.start.p0(i64 4, ptr %8) #5
  store i32 0, ptr %8, align 4, !tbaa !35
  %14 = load i32, ptr %7, align 4, !tbaa !35
  %15 = load ptr, ptr %4, align 8, !tbaa !29
  %16 = sext i32 %14 to i64
  %17 = getelementptr inbounds i8, ptr %15, i64 %16
  store ptr %17, ptr %4, align 8, !tbaa !29
  %18 = load i32, ptr %7, align 4, !tbaa !35
  %19 = load ptr, ptr %5, align 8, !tbaa !29
  %20 = sext i32 %18 to i64
  %21 = getelementptr inbounds i8, ptr %19, i64 %20
  store ptr %21, ptr %5, align 8, !tbaa !29
  br label %22

22:                                               ; preds = %45, %3
  call void @llvm.lifetime.start.p0(i64 4, ptr %9) #5
  %23 = load ptr, ptr %4, align 8, !tbaa !29
  %24 = getelementptr inbounds nuw i8, ptr %23, i32 1
  store ptr %24, ptr %4, align 8, !tbaa !29
  %25 = load i8, ptr %23, align 1, !tbaa !26
  %26 = zext i8 %25 to i32
  store i32 %26, ptr %9, align 4, !tbaa !35
  call void @llvm.lifetime.start.p0(i64 4, ptr %10) #5
  %27 = load ptr, ptr %5, align 8, !tbaa !29
  %28 = getelementptr inbounds nuw i8, ptr %27, i32 1
  store ptr %28, ptr %5, align 8, !tbaa !29
  %29 = load i8, ptr %27, align 1, !tbaa !26
  %30 = zext i8 %29 to i32
  store i32 %30, ptr %10, align 4, !tbaa !35
  %31 = load i32, ptr %9, align 4, !tbaa !35
  %32 = load i32, ptr %10, align 4, !tbaa !35
  %33 = sub nsw i32 %31, %32
  store i32 %33, ptr %8, align 4, !tbaa !35
  %34 = load i32, ptr %8, align 4, !tbaa !35
  %35 = icmp ne i32 %34, 0
  br i1 %35, label %39, label %36

36:                                               ; preds = %22
  %37 = load i32, ptr %9, align 4, !tbaa !35
  %38 = icmp eq i32 %37, 0
  br i1 %38, label %39, label %40

39:                                               ; preds = %36, %22
  store i32 2, ptr %11, align 4
  br label %43

40:                                               ; preds = %36
  %41 = load i32, ptr %7, align 4, !tbaa !35
  %42 = add nsw i32 %41, 1
  store i32 %42, ptr %7, align 4, !tbaa !35
  store i32 0, ptr %11, align 4
  br label %43

43:                                               ; preds = %40, %39
  call void @llvm.lifetime.end.p0(i64 4, ptr %10) #5
  call void @llvm.lifetime.end.p0(i64 4, ptr %9) #5
  %44 = load i32, ptr %11, align 4
  switch i32 %44, label %50 [
    i32 0, label %45
    i32 2, label %46
  ]

45:                                               ; preds = %43
  br label %22, !llvm.loop !41

46:                                               ; preds = %43
  %47 = load i32, ptr %7, align 4, !tbaa !35
  %48 = load ptr, ptr %6, align 8, !tbaa !31
  store i32 %47, ptr %48, align 4, !tbaa !35
  %49 = load i32, ptr %8, align 4, !tbaa !35
  store i32 1, ptr %11, align 4
  call void @llvm.lifetime.end.p0(i64 4, ptr %8) #5
  call void @llvm.lifetime.end.p0(i64 4, ptr %7) #5
  ret i32 %49

50:                                               ; preds = %43
  unreachable
}

; Function Attrs: mustprogress uwtable
define internal noundef i32 @_ZL27offsetTOCPrefixBinarySearchPKcS0_PK19UDataOffsetTOCEntryi(ptr noundef %0, ptr noundef %1, ptr noundef %2, i32 noundef %3) #2 {
  %5 = alloca i32, align 4
  %6 = alloca ptr, align 8
  %7 = alloca ptr, align 8
  %8 = alloca ptr, align 8
  %9 = alloca i32, align 4
  %10 = alloca i32, align 4
  %11 = alloca i32, align 4
  %12 = alloca i32, align 4
  %13 = alloca i32, align 4
  %14 = alloca i32, align 4
  %15 = alloca i32, align 4
  %16 = alloca i32, align 4
  %17 = alloca i32, align 4
  store ptr %0, ptr %6, align 8, !tbaa !29
  store ptr %1, ptr %7, align 8, !tbaa !29
  store ptr %2, ptr %8, align 8, !tbaa !3
  store i32 %3, ptr %9, align 4, !tbaa !35
  call void @llvm.lifetime.start.p0(i64 4, ptr %10) #5
  store i32 0, ptr %10, align 4, !tbaa !35
  call void @llvm.lifetime.start.p0(i64 4, ptr %11) #5
  %18 = load i32, ptr %9, align 4, !tbaa !35
  store i32 %18, ptr %11, align 4, !tbaa !35
  call void @llvm.lifetime.start.p0(i64 4, ptr %12) #5
  store i32 0, ptr %12, align 4, !tbaa !35
  call void @llvm.lifetime.start.p0(i64 4, ptr %13) #5
  store i32 0, ptr %13, align 4, !tbaa !35
  %19 = load i32, ptr %9, align 4, !tbaa !35
  %20 = icmp eq i32 %19, 0
  br i1 %20, label %21, label %22

21:                                               ; preds = %4
  store i32 -1, ptr %5, align 4
  store i32 1, ptr %14, align 4
  br label %103

22:                                               ; preds = %4
  %23 = load ptr, ptr %6, align 8, !tbaa !29
  %24 = load ptr, ptr %7, align 8, !tbaa !29
  %25 = load ptr, ptr %8, align 8, !tbaa !3
  %26 = getelementptr inbounds %struct.UDataOffsetTOCEntry, ptr %25, i64 0
  %27 = getelementptr inbounds nuw %struct.UDataOffsetTOCEntry, ptr %26, i32 0, i32 0
  %28 = load i32, ptr %27, align 4, !tbaa !38
  %29 = zext i32 %28 to i64
  %30 = getelementptr inbounds nuw i8, ptr %24, i64 %29
  %31 = call noundef i32 @_ZL17strcmpAfterPrefixPKcS0_Pi(ptr noundef %23, ptr noundef %30, ptr noundef %12)
  %32 = icmp eq i32 0, %31
  br i1 %32, label %33, label %34

33:                                               ; preds = %22
  store i32 0, ptr %5, align 4
  store i32 1, ptr %14, align 4
  br label %103

34:                                               ; preds = %22
  %35 = load i32, ptr %10, align 4, !tbaa !35
  %36 = add nsw i32 %35, 1
  store i32 %36, ptr %10, align 4, !tbaa !35
  %37 = load i32, ptr %11, align 4, !tbaa !35
  %38 = add nsw i32 %37, -1
  store i32 %38, ptr %11, align 4, !tbaa !35
  %39 = load ptr, ptr %6, align 8, !tbaa !29
  %40 = load ptr, ptr %7, align 8, !tbaa !29
  %41 = load ptr, ptr %8, align 8, !tbaa !3
  %42 = load i32, ptr %11, align 4, !tbaa !35
  %43 = sext i32 %42 to i64
  %44 = getelementptr inbounds %struct.UDataOffsetTOCEntry, ptr %41, i64 %43
  %45 = getelementptr inbounds nuw %struct.UDataOffsetTOCEntry, ptr %44, i32 0, i32 0
  %46 = load i32, ptr %45, align 4, !tbaa !38
  %47 = zext i32 %46 to i64
  %48 = getelementptr inbounds nuw i8, ptr %40, i64 %47
  %49 = call noundef i32 @_ZL17strcmpAfterPrefixPKcS0_Pi(ptr noundef %39, ptr noundef %48, ptr noundef %13)
  %50 = icmp eq i32 0, %49
  br i1 %50, label %51, label %53

51:                                               ; preds = %34
  %52 = load i32, ptr %11, align 4, !tbaa !35
  store i32 %52, ptr %5, align 4
  store i32 1, ptr %14, align 4
  br label %103

53:                                               ; preds = %34
  br label %54

54:                                               ; preds = %101, %53
  %55 = load i32, ptr %10, align 4, !tbaa !35
  %56 = load i32, ptr %11, align 4, !tbaa !35
  %57 = icmp slt i32 %55, %56
  br i1 %57, label %58, label %102

58:                                               ; preds = %54
  call void @llvm.lifetime.start.p0(i64 4, ptr %15) #5
  %59 = load i32, ptr %10, align 4, !tbaa !35
  %60 = load i32, ptr %11, align 4, !tbaa !35
  %61 = add nsw i32 %59, %60
  %62 = sdiv i32 %61, 2
  store i32 %62, ptr %15, align 4, !tbaa !35
  call void @llvm.lifetime.start.p0(i64 4, ptr %16) #5
  %63 = load i32, ptr %12, align 4, !tbaa !35
  %64 = load i32, ptr %13, align 4, !tbaa !35
  %65 = icmp slt i32 %63, %64
  br i1 %65, label %66, label %68

66:                                               ; preds = %58
  %67 = load i32, ptr %12, align 4, !tbaa !35
  br label %70

68:                                               ; preds = %58
  %69 = load i32, ptr %13, align 4, !tbaa !35
  br label %70

70:                                               ; preds = %68, %66
  %71 = phi i32 [ %67, %66 ], [ %69, %68 ]
  store i32 %71, ptr %16, align 4, !tbaa !35
  call void @llvm.lifetime.start.p0(i64 4, ptr %17) #5
  %72 = load ptr, ptr %6, align 8, !tbaa !29
  %73 = load ptr, ptr %7, align 8, !tbaa !29
  %74 = load ptr, ptr %8, align 8, !tbaa !3
  %75 = load i32, ptr %15, align 4, !tbaa !35
  %76 = sext i32 %75 to i64
  %77 = getelementptr inbounds %struct.UDataOffsetTOCEntry, ptr %74, i64 %76
  %78 = getelementptr inbounds nuw %struct.UDataOffsetTOCEntry, ptr %77, i32 0, i32 0
  %79 = load i32, ptr %78, align 4, !tbaa !38
  %80 = zext i32 %79 to i64
  %81 = getelementptr inbounds nuw i8, ptr %73, i64 %80
  %82 = call noundef i32 @_ZL17strcmpAfterPrefixPKcS0_Pi(ptr noundef %72, ptr noundef %81, ptr noundef %16)
  store i32 %82, ptr %17, align 4, !tbaa !35
  %83 = load i32, ptr %17, align 4, !tbaa !35
  %84 = icmp slt i32 %83, 0
  br i1 %84, label %85, label %88

85:                                               ; preds = %70
  %86 = load i32, ptr %15, align 4, !tbaa !35
  store i32 %86, ptr %11, align 4, !tbaa !35
  %87 = load i32, ptr %16, align 4, !tbaa !35
  store i32 %87, ptr %13, align 4, !tbaa !35
  br label %98

88:                                               ; preds = %70
  %89 = load i32, ptr %17, align 4, !tbaa !35
  %90 = icmp eq i32 %89, 0
  br i1 %90, label %91, label %93

91:                                               ; preds = %88
  %92 = load i32, ptr %15, align 4, !tbaa !35
  store i32 %92, ptr %5, align 4
  store i32 1, ptr %14, align 4
  br label %99

93:                                               ; preds = %88
  %94 = load i32, ptr %15, align 4, !tbaa !35
  %95 = add nsw i32 %94, 1
  store i32 %95, ptr %10, align 4, !tbaa !35
  %96 = load i32, ptr %16, align 4, !tbaa !35
  store i32 %96, ptr %12, align 4, !tbaa !35
  br label %97

97:                                               ; preds = %93
  br label %98

98:                                               ; preds = %97, %85
  store i32 0, ptr %14, align 4
  br label %99

99:                                               ; preds = %98, %91
  call void @llvm.lifetime.end.p0(i64 4, ptr %17) #5
  call void @llvm.lifetime.end.p0(i64 4, ptr %16) #5
  call void @llvm.lifetime.end.p0(i64 4, ptr %15) #5
  %100 = load i32, ptr %14, align 4
  switch i32 %100, label %103 [
    i32 0, label %101
  ]

101:                                              ; preds = %99
  br label %54, !llvm.loop !39

102:                                              ; preds = %54
  store i32 -1, ptr %5, align 4
  store i32 1, ptr %14, align 4
  br label %103

103:                                              ; preds = %102, %99, %51, %33, %21
  call void @llvm.lifetime.end.p0(i64 4, ptr %13) #5
  call void @llvm.lifetime.end.p0(i64 4, ptr %12) #5
  call void @llvm.lifetime.end.p0(i64 4, ptr %11) #5
  call void @llvm.lifetime.end.p0(i64 4, ptr %10) #5
  %104 = load i32, ptr %5, align 4
  ret i32 %104
}

; Function Attrs: mustprogress uwtable
define internal noundef ptr @_ZL17offsetTOCLookupFnPK11UDataMemoryPKcPiP10UErrorCode(ptr noundef %0, ptr noundef %1, ptr noundef %2, ptr noundef %3) #2 {
  %5 = alloca ptr, align 8
  %6 = alloca ptr, align 8
  %7 = alloca ptr, align 8
  %8 = alloca ptr, align 8
  %9 = alloca ptr, align 8
  %10 = alloca ptr, align 8
  %11 = alloca ptr, align 8
  %12 = alloca i32, align 4
  %13 = alloca i32, align 4
  %14 = alloca ptr, align 8
  %15 = alloca i32, align 4
  store ptr %0, ptr %6, align 8, !tbaa !16
  store ptr %1, ptr %7, align 8, !tbaa !29
  store ptr %2, ptr %8, align 8, !tbaa !31
  store ptr %3, ptr %9, align 8, !tbaa !3
  call void @llvm.lifetime.start.p0(i64 8, ptr %10) #5
  %16 = load ptr, ptr %6, align 8, !tbaa !16
  %17 = getelementptr inbounds nuw %struct.UDataMemory, ptr %16, i32 0, i32 2
  %18 = load ptr, ptr %17, align 8, !tbaa !28
  store ptr %18, ptr %10, align 8, !tbaa !3
  %19 = load ptr, ptr %10, align 8, !tbaa !3
  %20 = icmp ne ptr %19, null
  br i1 %20, label %21, label %67

21:                                               ; preds = %4
  call void @llvm.lifetime.start.p0(i64 8, ptr %11) #5
  %22 = load ptr, ptr %10, align 8, !tbaa !3
  store ptr %22, ptr %11, align 8, !tbaa !29
  call void @llvm.lifetime.start.p0(i64 4, ptr %12) #5
  call void @llvm.lifetime.start.p0(i64 4, ptr %13) #5
  %23 = load ptr, ptr %10, align 8, !tbaa !3
  %24 = getelementptr inbounds nuw %struct.UDataOffsetTOC, ptr %23, i32 0, i32 0
  %25 = load i32, ptr %24, align 4, !tbaa !33
  store i32 %25, ptr %13, align 4, !tbaa !35
  %26 = load ptr, ptr %7, align 8, !tbaa !29
  %27 = load ptr, ptr %11, align 8, !tbaa !29
  %28 = load ptr, ptr %10, align 8, !tbaa !3
  %29 = getelementptr inbounds nuw %struct.UDataOffsetTOC, ptr %28, i32 0, i32 1
  %30 = getelementptr inbounds [1 x %struct.UDataOffsetTOCEntry], ptr %29, i64 0, i64 0
  %31 = load i32, ptr %13, align 4, !tbaa !35
  %32 = call noundef i32 @_ZL27offsetTOCPrefixBinarySearchPKcS0_PK19UDataOffsetTOCEntryi(ptr noundef %26, ptr noundef %27, ptr noundef %30, i32 noundef %31)
  store i32 %32, ptr %12, align 4, !tbaa !35
  %33 = load i32, ptr %12, align 4, !tbaa !35
  %34 = icmp sge i32 %33, 0
  br i1 %34, label %35, label %65

35:                                               ; preds = %21
  call void @llvm.lifetime.start.p0(i64 8, ptr %14) #5
  %36 = load ptr, ptr %10, align 8, !tbaa !3
  %37 = getelementptr inbounds nuw %struct.UDataOffsetTOC, ptr %36, i32 0, i32 1
  %38 = getelementptr inbounds [1 x %struct.UDataOffsetTOCEntry], ptr %37, i64 0, i64 0
  %39 = load i32, ptr %12, align 4, !tbaa !35
  %40 = sext i32 %39 to i64
  %41 = getelementptr inbounds %struct.UDataOffsetTOCEntry, ptr %38, i64 %40
  store ptr %41, ptr %14, align 8, !tbaa !3
  %42 = load i32, ptr %12, align 4, !tbaa !35
  %43 = add nsw i32 %42, 1
  %44 = load i32, ptr %13, align 4, !tbaa !35
  %45 = icmp slt i32 %43, %44
  br i1 %45, label %46, label %56

46:                                               ; preds = %35
  %47 = load ptr, ptr %14, align 8, !tbaa !3
  %48 = getelementptr inbounds %struct.UDataOffsetTOCEntry, ptr %47, i64 1
  %49 = getelementptr inbounds nuw %struct.UDataOffsetTOCEntry, ptr %48, i32 0, i32 1
  %50 = load i32, ptr %49, align 4, !tbaa !36
  %51 = load ptr, ptr %14, align 8, !tbaa !3
  %52 = getelementptr inbounds nuw %struct.UDataOffsetTOCEntry, ptr %51, i32 0, i32 1
  %53 = load i32, ptr %52, align 4, !tbaa !36
  %54 = sub i32 %50, %53
  %55 = load ptr, ptr %8, align 8, !tbaa !31
  store i32 %54, ptr %55, align 4, !tbaa !35
  br label %58

56:                                               ; preds = %35
  %57 = load ptr, ptr %8, align 8, !tbaa !31
  store i32 -1, ptr %57, align 4, !tbaa !35
  br label %58

58:                                               ; preds = %56, %46
  %59 = load ptr, ptr %11, align 8, !tbaa !29
  %60 = load ptr, ptr %14, align 8, !tbaa !3
  %61 = getelementptr inbounds nuw %struct.UDataOffsetTOCEntry, ptr %60, i32 0, i32 1
  %62 = load i32, ptr %61, align 4, !tbaa !36
  %63 = zext i32 %62 to i64
  %64 = getelementptr inbounds nuw i8, ptr %59, i64 %63
  store ptr %64, ptr %5, align 8
  store i32 1, ptr %15, align 4
  call void @llvm.lifetime.end.p0(i64 8, ptr %14) #5
  br label %66

65:                                               ; preds = %21
  store ptr null, ptr %5, align 8
  store i32 1, ptr %15, align 4
  br label %66

66:                                               ; preds = %65, %58
  call void @llvm.lifetime.end.p0(i64 4, ptr %13) #5
  call void @llvm.lifetime.end.p0(i64 4, ptr %12) #5
  call void @llvm.lifetime.end.p0(i64 8, ptr %11) #5
  br label %71

67:                                               ; preds = %4
  %68 = load ptr, ptr %6, align 8, !tbaa !16
  %69 = getelementptr inbounds nuw %struct.UDataMemory, ptr %68, i32 0, i32 1
  %70 = load ptr, ptr %69, align 8, !tbaa !20
  store ptr %70, ptr %5, align 8
  store i32 1, ptr %15, align 4
  br label %71

71:                                               ; preds = %67, %66
  call void @llvm.lifetime.end.p0(i64 8, ptr %10) #5
  %72 = load ptr, ptr %5, align 8
  ret ptr %72
}