; Function Attrs: mustprogress nofree norecurse nosync nounwind memory(read, argmem: readwrite, inaccessiblemem: none) uwtable
define internal noundef ptr @_ZL17offsetTOCLookupFnPK11UDataMemoryPKcPiP10UErrorCode(ptr noundef readonly captures(none) %0, ptr noundef readonly captures(none) %1, ptr noundef writeonly captures(none) %2, ptr readnone captures(none) %3) #3 {
  %5 = getelementptr inbounds nuw i8, ptr %0, i64 16
  %6 = load ptr, ptr %5, align 8, !tbaa !24
  %.not = icmp eq ptr %6, null
  br i1 %.not, label %83, label %7

7:                                                ; preds = %4
  %8 = load i32, ptr %6, align 4, !tbaa !25
  %9 = getelementptr inbounds nuw i8, ptr %6, i64 4
  %10 = icmp eq i32 %8, 0
  br i1 %10, label %_ZL27offsetTOCPrefixBinarySearchPKcS0_PK19UDataOffsetTOCEntryi.exit.thread, label %11

11:                                               ; preds = %7
  %12 = load i32, ptr %9, align 4, !tbaa !27
  %13 = zext i32 %12 to i64
  %14 = getelementptr inbounds nuw i8, ptr %6, i64 %13
  br label %15

15:                                               ; preds = %15, %11
  %.018.i.i = phi i32 [ 0, %11 ], [ %22, %15 ]
  %.017.i.i = phi ptr [ %14, %11 ], [ %18, %15 ]
  %.016.i.i = phi ptr [ %1, %11 ], [ %16, %15 ]
  %16 = getelementptr inbounds nuw i8, ptr %.016.i.i, i64 1
  %17 = load i8, ptr %.016.i.i, align 1, !tbaa !22
  %18 = getelementptr inbounds nuw i8, ptr %.017.i.i, i64 1
  %19 = load i8, ptr %.017.i.i, align 1, !tbaa !22
  %20 = icmp ne i8 %17, %19
  %21 = icmp eq i8 %17, 0
  %or.cond.i.i = or i1 %21, %20
  %22 = add nuw nsw i32 %.018.i.i, 1
  br i1 %or.cond.i.i, label %_ZL17strcmpAfterPrefixPKcS0_Pi.exit.i, label %15

_ZL17strcmpAfterPrefixPKcS0_Pi.exit.i:            ; preds = %15
  %23 = icmp eq i8 %17, %19
  br i1 %23, label %_ZL27offsetTOCPrefixBinarySearchPKcS0_PK19UDataOffsetTOCEntryi.exit.thread24, label %24

24:                                               ; preds = %_ZL17strcmpAfterPrefixPKcS0_Pi.exit.i
  %25 = add nsw i32 %8, -1
  %26 = sext i32 %25 to i64
  %27 = getelementptr inbounds %struct.UDataOffsetTOCEntry, ptr %9, i64 %26
  %28 = load i32, ptr %27, align 4, !tbaa !27
  %29 = zext i32 %28 to i64
  %30 = getelementptr inbounds nuw i8, ptr %6, i64 %29
  br label %31

31:                                               ; preds = %31, %24
  %.018.i35.i = phi i32 [ 0, %24 ], [ %38, %31 ]
  %.017.i36.i = phi ptr [ %30, %24 ], [ %34, %31 ]
  %.016.i37.i = phi ptr [ %1, %24 ], [ %32, %31 ]
  %32 = getelementptr inbounds nuw i8, ptr %.016.i37.i, i64 1
  %33 = load i8, ptr %.016.i37.i, align 1, !tbaa !22
  %34 = getelementptr inbounds nuw i8, ptr %.017.i36.i, i64 1
  %35 = load i8, ptr %.017.i36.i, align 1, !tbaa !22
  %36 = icmp ne i8 %33, %35
  %37 = icmp eq i8 %33, 0
  %or.cond.i38.i = or i1 %37, %36
  %38 = add nuw nsw i32 %.018.i35.i, 1
  br i1 %or.cond.i38.i, label %_ZL17strcmpAfterPrefixPKcS0_Pi.exit39.i, label %31

_ZL17strcmpAfterPrefixPKcS0_Pi.exit39.i:          ; preds = %31
  %39 = icmp eq i8 %33, %35
  br i1 %39, label %_ZL27offsetTOCPrefixBinarySearchPKcS0_PK19UDataOffsetTOCEntryi.exit, label %.preheader.i

.preheader.i:                                     ; preds = %_ZL17strcmpAfterPrefixPKcS0_Pi.exit39.i
  %40 = icmp sgt i32 %8, 2
  br i1 %40, label %.lr.ph.i, label %_ZL27offsetTOCPrefixBinarySearchPKcS0_PK19UDataOffsetTOCEntryi.exit.thread

.lr.ph.i:                                         ; preds = %.preheader.i, %65
  %.02669.i = phi i32 [ %.228.i, %65 ], [ 1, %.preheader.i ]
  %.03068.i = phi i32 [ %.232.i, %65 ], [ %25, %.preheader.i ]
  %.05167.i = phi i32 [ %.152.i, %65 ], [ %.018.i35.i, %.preheader.i ]
  %.05366.i = phi i32 [ %.154.i, %65 ], [ %.018.i.i, %.preheader.i ]
  %41 = add nuw nsw i32 %.03068.i, %.02669.i
  %42 = lshr i32 %41, 1
  %43 = tail call i32 @llvm.smin.i32(i32 %.05366.i, i32 %.05167.i)
  %44 = zext nneg i32 %42 to i64
  %45 = getelementptr inbounds nuw %struct.UDataOffsetTOCEntry, ptr %9, i64 %44
  %46 = load i32, ptr %45, align 4, !tbaa !27
  %47 = zext i32 %46 to i64
  %48 = getelementptr inbounds nuw i8, ptr %6, i64 %47
  %49 = sext i32 %43 to i64
  %50 = getelementptr inbounds i8, ptr %1, i64 %49
  %51 = getelementptr inbounds i8, ptr %48, i64 %49
  br label %52

52:                                               ; preds = %52, %.lr.ph.i
  %.018.i40.i = phi i32 [ %43, %.lr.ph.i ], [ %59, %52 ]
  %.017.i41.i = phi ptr [ %51, %.lr.ph.i ], [ %55, %52 ]
  %.016.i42.i = phi ptr [ %50, %.lr.ph.i ], [ %53, %52 ]
  %53 = getelementptr inbounds nuw i8, ptr %.016.i42.i, i64 1
  %54 = load i8, ptr %.016.i42.i, align 1, !tbaa !22
  %55 = getelementptr inbounds nuw i8, ptr %.017.i41.i, i64 1
  %56 = load i8, ptr %.017.i41.i, align 1, !tbaa !22
  %57 = icmp ne i8 %54, %56
  %58 = icmp eq i8 %54, 0
  %or.cond.i43.i = or i1 %58, %57
  %59 = add nsw i32 %.018.i40.i, 1
  br i1 %or.cond.i43.i, label %_ZL17strcmpAfterPrefixPKcS0_Pi.exit44.i, label %52

_ZL17strcmpAfterPrefixPKcS0_Pi.exit44.i:          ; preds = %52
  %60 = icmp ult i8 %54, %56
  br i1 %60, label %65, label %61

61:                                               ; preds = %_ZL17strcmpAfterPrefixPKcS0_Pi.exit44.i
  %62 = icmp eq i8 %54, %56
  br i1 %62, label %_ZL27offsetTOCPrefixBinarySearchPKcS0_PK19UDataOffsetTOCEntryi.exit.thread24, label %63

63:                                               ; preds = %61
  %64 = add nuw nsw i32 %42, 1
  br label %65

65:                                               ; preds = %63, %_ZL17strcmpAfterPrefixPKcS0_Pi.exit44.i
  %.154.i = phi i32 [ %.018.i40.i, %63 ], [ %.05366.i, %_ZL17strcmpAfterPrefixPKcS0_Pi.exit44.i ]
  %.152.i = phi i32 [ %.05167.i, %63 ], [ %.018.i40.i, %_ZL17strcmpAfterPrefixPKcS0_Pi.exit44.i ]
  %.232.i = phi i32 [ %.03068.i, %63 ], [ %42, %_ZL17strcmpAfterPrefixPKcS0_Pi.exit44.i ]
  %.228.i = phi i32 [ %64, %63 ], [ %.02669.i, %_ZL17strcmpAfterPrefixPKcS0_Pi.exit44.i ]
  %66 = icmp slt i32 %.228.i, %.232.i
  br i1 %66, label %.lr.ph.i, label %_ZL27offsetTOCPrefixBinarySearchPKcS0_PK19UDataOffsetTOCEntryi.exit.thread, !llvm.loop !29

_ZL27offsetTOCPrefixBinarySearchPKcS0_PK19UDataOffsetTOCEntryi.exit: ; preds = %_ZL17strcmpAfterPrefixPKcS0_Pi.exit39.i
  %67 = icmp sgt i32 %8, 0
  br i1 %67, label %_ZL27offsetTOCPrefixBinarySearchPKcS0_PK19UDataOffsetTOCEntryi.exit.thread24, label %_ZL27offsetTOCPrefixBinarySearchPKcS0_PK19UDataOffsetTOCEntryi.exit.thread

_ZL27offsetTOCPrefixBinarySearchPKcS0_PK19UDataOffsetTOCEntryi.exit.thread24: ; preds = %61, %_ZL17strcmpAfterPrefixPKcS0_Pi.exit.i, %_ZL27offsetTOCPrefixBinarySearchPKcS0_PK19UDataOffsetTOCEntryi.exit
  %.0.i26 = phi i32 [ %25, %_ZL27offsetTOCPrefixBinarySearchPKcS0_PK19UDataOffsetTOCEntryi.exit ], [ 0, %_ZL17strcmpAfterPrefixPKcS0_Pi.exit.i ], [ %42, %61 ]
  %68 = zext nneg i32 %.0.i26 to i64
  %69 = getelementptr inbounds nuw %struct.UDataOffsetTOCEntry, ptr %9, i64 %68
  %70 = add nuw nsw i32 %.0.i26, 1
  %71 = icmp slt i32 %70, %8
  br i1 %71, label %72, label %78

72:                                               ; preds = %_ZL27offsetTOCPrefixBinarySearchPKcS0_PK19UDataOffsetTOCEntryi.exit.thread24
  %73 = getelementptr inbounds nuw i8, ptr %69, i64 12
  %74 = load i32, ptr %73, align 4, !tbaa !31
  %75 = getelementptr inbounds nuw i8, ptr %69, i64 4
  %76 = load i32, ptr %75, align 4, !tbaa !31
  %77 = sub i32 %74, %76
  br label %78

78:                                               ; preds = %_ZL27offsetTOCPrefixBinarySearchPKcS0_PK19UDataOffsetTOCEntryi.exit.thread24, %72
  %storemerge = phi i32 [ %77, %72 ], [ -1, %_ZL27offsetTOCPrefixBinarySearchPKcS0_PK19UDataOffsetTOCEntryi.exit.thread24 ]
  store i32 %storemerge, ptr %2, align 4, !tbaa !32
  %79 = getelementptr inbounds nuw i8, ptr %69, i64 4
  %80 = load i32, ptr %79, align 4, !tbaa !31
  %81 = zext i32 %80 to i64
  %82 = getelementptr inbounds nuw i8, ptr %6, i64 %81
  br label %_ZL27offsetTOCPrefixBinarySearchPKcS0_PK19UDataOffsetTOCEntryi.exit.thread

83:                                               ; preds = %4
  %84 = getelementptr inbounds nuw i8, ptr %0, i64 8
  %85 = load ptr, ptr %84, align 8, !tbaa !15
  br label %_ZL27offsetTOCPrefixBinarySearchPKcS0_PK19UDataOffsetTOCEntryi.exit.thread

_ZL27offsetTOCPrefixBinarySearchPKcS0_PK19UDataOffsetTOCEntryi.exit.thread: ; preds = %65, %.preheader.i, %7, %78, %_ZL27offsetTOCPrefixBinarySearchPKcS0_PK19UDataOffsetTOCEntryi.exit, %83
  %.1 = phi ptr [ %85, %83 ], [ %82, %78 ], [ null, %_ZL27offsetTOCPrefixBinarySearchPKcS0_PK19UDataOffsetTOCEntryi.exit ], [ null, %7 ], [ null, %.preheader.i ], [ null, %65 ]
  ret ptr %.1
}